target datalayout = "e-m:e-p270:32:32-p271:32:32-p272:64:64-i64:64-i128:128-f80:128-n8:16:32:64-S128"
target triple = "x86_64-pc-linux-gnu"

%"class.LIEF::PE::ResourceDialogItem" = type <{ %"class.LIEF::Object", i8, [3 x i8], i32, i32, i32, i32, i16, i16, i16, i16, [4 x i8], %"class.std::__cxx11::basic_string.39", %"class.std::__cxx11::basic_string.39", i16, [6 x i8] }>
%"class.LIEF::Object" = type { ptr }
%"class.std::__cxx11::basic_string.39" = type { %"struct.std::__cxx11::basic_string<char16_t>::_Alloc_hider", i64, %union.anon.43 }
%"struct.std::__cxx11::basic_string<char16_t>::_Alloc_hider" = type { ptr }
%union.anon.43 = type { i64, [8 x i8] }
%"class.std::allocator.40" = type { i8 }
%"struct.LIEF::PE::details::pe_dialog_item_template_ext" = type { i32, i32, i32, i16, i16, i16, i16, i32 }

; Function Attrs: mustprogress nounwind uwtable
define linkonce_odr hidden void @_ZNSt15__new_allocatorIDsEC2ERKS0_(ptr noundef nonnull align 1 dereferenceable(1) %0, ptr noundef nonnull align 1 dereferenceable(1) %1) unnamed_addr #1 comdat align 2 {
  %3 = alloca ptr, align 8
  %4 = alloca ptr, align 8
  store ptr %0, ptr %3, align 8
  store ptr %1, ptr %4, align 8
  ret void
}

; Function Attrs: mustprogress nounwind uwtable
define linkonce_odr hidden void @_ZNSt11char_traitsIDsE6assignERDsRKDs(ptr noundef nonnull align 2 dereferenceable(2) %0, ptr noundef nonnull align 2 dereferenceable(2) %1) #1 comdat align 2 {
  %3 = alloca ptr, align 8
  %4 = alloca ptr, align 8
  store ptr %0, ptr %3, align 8
  store ptr %1, ptr %4, align 8
  %5 = load ptr, ptr %4, align 8
  %6 = load i16, ptr %5, align 2
  %7 = load ptr, ptr %3, align 8
  store i16 %6, ptr %7, align 2
  ret void
}

; Function Attrs: mustprogress nounwind uwtable
define linkonce_odr hidden noundef ptr @_ZNKSt7__cxx1112basic_stringIDsSt11char_traitsIDsESaIDsEE7_M_dataEv(ptr noundef nonnull align 8 dereferenceable(32) %0) #1 comdat align 2 {
  %2 = alloca ptr, align 8
  store ptr %0, ptr %2, align 8
  %3 = load ptr, ptr %2, align 8
  %4 = getelementptr inbounds %"class.std::__cxx11::basic_string.39", ptr %3, i32 0, i32 0
  %5 = getelementptr inbounds %"struct.std::__cxx11::basic_string<char16_t>::_Alloc_hider", ptr %4, i32 0, i32 0
  %6 = load ptr, ptr %5, align 8
  ret ptr %6
}

; Function Attrs: mustprogress nounwind uwtable
define linkonce_odr hidden void @_ZNSt7__cxx1112basic_stringIDsSt11char_traitsIDsESaIDsEE9_M_lengthEm(ptr noundef nonnull align 8 dereferenceable(32) %0, i64 noundef %1) #1 comdat align 2 {
  %3 = alloca ptr, align 8
  %4 = alloca i64, align 8
  store ptr %0, ptr %3, align 8
  store i64 %1, ptr %4, align 8
  %5 = load ptr, ptr %3, align 8
  %6 = load i64, ptr %4, align 8
  %7 = getelementptr inbounds %"class.std::__cxx11::basic_string.39", ptr %5, i32 0, i32 1
  store i64 %6, ptr %7, align 8
  ret void
}

; Function Attrs: mustprogress nounwind uwtable
define linkonce_odr hidden void @_ZNSt15__new_allocatorIDsED2Ev(ptr noundef nonnull align 1 dereferenceable(1) %0) unnamed_addr #1 comdat align 2 {
  %2 = alloca ptr, align 8
  store ptr %0, ptr %2, align 8
  ret void
}

; Function Attrs: mustprogress nounwind uwtable
define linkonce_odr hidden void @_ZNSaIDsEC2ERKS_(ptr noundef nonnull align 1 dereferenceable(1) %0, ptr noundef nonnull align 1 dereferenceable(1) %1) unnamed_addr #1 comdat align 2 {
  %3 = alloca ptr, align 8
  %4 = alloca ptr, align 8
  store ptr %0, ptr %3, align 8
  store ptr %1, ptr %4, align 8
  %5 = load ptr, ptr %3, align 8
  %6 = load ptr, ptr %4, align 8
  call void @_ZNSt15__new_allocatorIDsEC2ERKS0_(ptr noundef nonnull align 1 dereferenceable(1) %5, ptr noundef nonnull align 1 dereferenceable(1) %6) #14
  ret void
}

; Function Attrs: mustprogress nounwind uwtable
define linkonce_odr hidden void @_ZNSt15__new_allocatorIDsEC2Ev(ptr noundef nonnull align 1 dereferenceable(1) %0) unnamed_addr #1 comdat align 2 {
  %2 = alloca ptr, align 8
  store ptr %0, ptr %2, align 8
  ret void
}

; Function Attrs: mustprogress nounwind uwtable
define linkonce_odr hidden noundef ptr @_ZNSt19__ptr_traits_ptr_toIPDsDsLb0EE10pointer_toERDs(ptr noundef nonnull align 2 dereferenceable(2) %0) #1 comdat align 2 {
  %2 = alloca ptr, align 8
  store ptr %0, ptr %2, align 8
  %3 = load ptr, ptr %2, align 8
  ret ptr %3
}

; Function Attrs: noreturn nounwind uwtable
define linkonce_odr hidden void @__clang_call_terminate(ptr noundef %0) #6 comdat {
  %2 = call ptr @__cxa_begin_catch(ptr %0) #14
  call void @_ZSt9terminatev() #17
  unreachable
}

; Function Attrs: mustprogress uwtable
define linkonce_odr hidden void @_ZNSt7__cxx1112basic_stringIDsSt11char_traitsIDsESaIDsEE13_M_set_lengthEm(ptr noundef nonnull align 8 dereferenceable(32) %0, i64 noundef %1) #3 comdat align 2 {
  %3 = alloca ptr, align 8
  %4 = alloca i64, align 8
  %5 = alloca i16, align 2
  store ptr %0, ptr %3, align 8
  store i64 %1, ptr %4, align 8
  %6 = load ptr, ptr %3, align 8
  %7 = load i64, ptr %4, align 8
  call void @_ZNSt7__cxx1112basic_stringIDsSt11char_traitsIDsESaIDsEE9_M_lengthEm(ptr noundef nonnull align 8 dereferenceable(32) %6, i64 noundef %7)
  %8 = call noundef ptr @_ZNKSt7__cxx1112basic_stringIDsSt11char_traitsIDsESaIDsEE7_M_dataEv(ptr noundef nonnull align 8 dereferenceable(32) %6)
  %9 = load i64, ptr %4, align 8
  %10 = getelementptr inbounds i16, ptr %8, i64 %9
  store i16 0, ptr %5, align 2
  call void @_ZNSt11char_traitsIDsE6assignERDsRKDs(ptr noundef nonnull align 2 dereferenceable(2) %10, ptr noundef nonnull align 2 dereferenceable(2) %5) #14
  ret void
}

; Function Attrs: mustprogress nounwind uwtable
define linkonce_odr hidden void @_ZNSaIDsED2Ev(ptr noundef nonnull align 1 dereferenceable(1) %0) unnamed_addr #1 comdat align 2 {
  %2 = alloca ptr, align 8
  store ptr %0, ptr %2, align 8
  %3 = load ptr, ptr %2, align 8
  call void @_ZNSt15__new_allocatorIDsED2Ev(ptr noundef nonnull align 1 dereferenceable(1) %3) #14
  ret void
}

; Function Attrs: mustprogress nounwind uwtable
define linkonce_odr hidden void @_ZNSt7__cxx1112basic_stringIDsSt11char_traitsIDsESaIDsEE12_Alloc_hiderC2EPDsOS3_(ptr noundef nonnull align 8 dereferenceable(8) %0, ptr noundef %1, ptr noundef nonnull align 1 dereferenceable(1) %2) unnamed_addr #1 comdat align 2 {
  %4 = alloca ptr, align 8
  %5 = alloca ptr, align 8
  %6 = alloca ptr, align 8
  store ptr %0, ptr %4, align 8
  store ptr %1, ptr %5, align 8
  store ptr %2, ptr %6, align 8
  %7 = load ptr, ptr %4, align 8
  %8 = load ptr, ptr %6, align 8
  call void @_ZNSaIDsEC2ERKS_(ptr noundef nonnull align 1 dereferenceable(1) %7, ptr noundef nonnull align 1 dereferenceable(1) %8) #14
  %9 = getelementptr inbounds %"struct.std::__cxx11::basic_string<char16_t>::_Alloc_hider", ptr %7, i32 0, i32 0
  %10 = load ptr, ptr %5, align 8
  store ptr %10, ptr %9, align 8
  ret void
}

; Function Attrs: mustprogress nounwind uwtable
define linkonce_odr hidden void @_ZNSaIDsEC2Ev(ptr noundef nonnull align 1 dereferenceable(1) %0) unnamed_addr #1 comdat align 2 {
  %2 = alloca ptr, align 8
  store ptr %0, ptr %2, align 8
  %3 = load ptr, ptr %2, align 8
  call void @_ZNSt15__new_allocatorIDsEC2Ev(ptr noundef nonnull align 1 dereferenceable(1) %3) #14
  ret void
}

; Function Attrs: mustprogress nounwind uwtable
define linkonce_odr hidden noundef ptr @_ZNSt7__cxx1112basic_stringIDsSt11char_traitsIDsESaIDsEE13_M_local_dataEv(ptr noundef nonnull align 8 dereferenceable(32) %0) #1 comdat align 2 {
  %2 = alloca ptr, align 8
  store ptr %0, ptr %2, align 8
  %3 = load ptr, ptr %2, align 8
  %4 = getelementptr inbounds %"class.std::__cxx11::basic_string.39", ptr %3, i32 0, i32 2
  %5 = getelementptr inbounds [8 x i16], ptr %4, i64 0, i64 0
  %6 = call noundef ptr @_ZNSt19__ptr_traits_ptr_toIPDsDsLb0EE10pointer_toERDs(ptr noundef nonnull align 2 dereferenceable(2) %5) #14
  ret ptr %6
}

; Function Attrs: mustprogress nounwind uwtable
define linkonce_odr hidden void @_ZNSt7__cxx1112basic_stringIDsSt11char_traitsIDsESaIDsEEC2Ev(ptr noundef nonnull align 8 dereferenceable(32) %0) unnamed_addr #1 comdat align 2 personality ptr @__gxx_personality_v0 {
  %2 = alloca ptr, align 8
  %3 = alloca ptr, align 8
  %4 = alloca %"class.std::allocator.40", align 1
  store ptr %0, ptr %3, align 8
  %5 = load ptr, ptr %3, align 8
  %6 = getelementptr inbounds %"class.std::__cxx11::basic_string.39", ptr %5, i32 0, i32 0
  %7 = call noundef ptr @_ZNSt7__cxx1112basic_stringIDsSt11char_traitsIDsESaIDsEE13_M_local_dataEv(ptr noundef nonnull align 8 dereferenceable(32) %5)
  call void @_ZNSaIDsEC2Ev(ptr noundef nonnull align 1 dereferenceable(1) %4) #14
  invoke void @_ZNSt7__cxx1112basic_stringIDsSt11char_traitsIDsESaIDsEE12_Alloc_hiderC2EPDsOS3_(ptr noundef nonnull align 8 dereferenceable(8) %6, ptr noundef %7, ptr noundef nonnull align 1 dereferenceable(1) %4)
          to label %8 unwind label %12

8:                                                ; preds = %1
  call void @_ZNSaIDsED2Ev(ptr noundef nonnull align 1 dereferenceable(1) %4) #14
  store ptr %5, ptr %2, align 8
  %9 = load ptr, ptr %2, align 8
  %10 = call noundef ptr @_ZNSt7__cxx1112basic_stringIDsSt11char_traitsIDsESaIDsEE13_M_local_dataEv(ptr noundef nonnull align 8 dereferenceable(32) %9)
  invoke void @_ZNSt7__cxx1112basic_stringIDsSt11char_traitsIDsESaIDsEE13_M_set_lengthEm(ptr noundef nonnull align 8 dereferenceable(32) %5, i64 noundef 0)
          to label %11 unwind label %12

11:                                               ; preds = %8
  ret void

12:                                               ; preds = %8, %1
  %13 = landingpad { ptr, i32 }
          catch ptr null
  %14 = extractvalue { ptr, i32 } %13, 0
  call void @__clang_call_terminate(ptr %14) #17
  unreachable
}

; Function Attrs: mustprogress uwtable
define void @_ZN4LIEF2PE18ResourceDialogItemC2ERKNS0_7details27pe_dialog_item_template_extE(ptr noundef nonnull align 8 dereferenceable(106) %0, ptr noundef nonnull align 1 dereferenceable(24) %1) unnamed_addr #3 align 2 {
  %3 = alloca ptr, align 8
  %4 = alloca ptr, align 8
  store ptr %0, ptr %3, align 8
  store ptr %1, ptr %4, align 8
  %5 = load ptr, ptr %3, align 8
  call void @_ZN4LIEF6ObjectC2Ev(ptr noundef nonnull align 8 dereferenceable(8) %5)
  store ptr getelementptr inbounds ({ [7 x ptr] }, ptr @_ZTVN4LIEF2PE18ResourceDialogItemE, i32 0, i32 0, i32 2), ptr %5, align 8
  %6 = getelementptr inbounds %"class.LIEF::PE::ResourceDialogItem", ptr %5, i32 0, i32 1
  store i8 1, ptr %6, align 8
  %7 = getelementptr inbounds %"class.LIEF::PE::ResourceDialogItem", ptr %5, i32 0, i32 3
  %8 = load ptr, ptr %4, align 8
  %9 = getelementptr inbounds %"struct.LIEF::PE::details::pe_dialog_item_template_ext", ptr %8, i32 0, i32 0
  %10 = load i32, ptr %9, align 1
  store i32 %10, ptr %7, align 4
  %11 = getelementptr inbounds %"class.LIEF::PE::ResourceDialogItem", ptr %5, i32 0, i32 4
  %12 = load ptr, ptr %4, align 8
  %13 = getelementptr inbounds %"struct.LIEF::PE::details::pe_dialog_item_template_ext", ptr %12, i32 0, i32 1
  %14 = load i32, ptr %13, align 1
  store i32 %14, ptr %11, align 8
  %15 = getelementptr inbounds %"class.LIEF::PE::ResourceDialogItem", ptr %5, i32 0, i32 5
  %16 = load ptr, ptr %4, align 8
  %17 = getelementptr inbounds %"struct.LIEF::PE::details::pe_dialog_item_template_ext", ptr %16, i32 0, i32 2
  %18 = load i32, ptr %17, align 1
  store i32 %18, ptr %15, align 4
  %19 = getelementptr inbounds %"class.LIEF::PE::ResourceDialogItem", ptr %5, i32 0, i32 6
  %20 = load ptr, ptr %4, align 8
  %21 = getelementptr inbounds %"struct.LIEF::PE::details::pe_dialog_item_template_ext", ptr %20, i32 0, i32 7
  %22 = load i32, ptr %21, align 1
  store i32 %22, ptr %19, align 8
  %23 = getelementptr inbounds %"class.LIEF::PE::ResourceDialogItem", ptr %5, i32 0, i32 7
  %24 = load ptr, ptr %4, align 8
  %25 = getelementptr inbounds %"struct.LIEF::PE::details::pe_dialog_item_template_ext", ptr %24, i32 0, i32 3
  %26 = load i16, ptr %25, align 1
  store i16 %26, ptr %23, align 4
  %27 = getelementptr inbounds %"class.LIEF::PE::ResourceDialogItem", ptr %5, i32 0, i32 8
  %28 = load ptr, ptr %4, align 8
  %29 = getelementptr inbounds %"struct.LIEF::PE::details::pe_dialog_item_template_ext", ptr %28, i32 0, i32 4
  %30 = load i16, ptr %29, align 1
  store i16 %30, ptr %27, align 2
  %31 = getelementptr inbounds %"class.LIEF::PE::ResourceDialogItem", ptr %5, i32 0, i32 9
  %32 = load ptr, ptr %4, align 8
  %33 = getelementptr inbounds %"struct.LIEF::PE::details::pe_dialog_item_template_ext", ptr %32, i32 0, i32 5
  %34 = load i16, ptr %33, align 1
  store i16 %34, ptr %31, align 8
  %35 = getelementptr inbounds %"class.LIEF::PE::ResourceDialogItem", ptr %5, i32 0, i32 10
  %36 = load ptr, ptr %4, align 8
  %37 = getelementptr inbounds %"struct.LIEF::PE::details::pe_dialog_item_template_ext", ptr %36, i32 0, i32 6
  %38 = load i16, ptr %37, align 1
  store i16 %38, ptr %35, align 2
  %39 = getelementptr inbounds %"class.LIEF::PE::ResourceDialogItem", ptr %5, i32 0, i32 12
  call void @_ZNSt7__cxx1112basic_stringIDsSt11char_traitsIDsESaIDsEEC2Ev(ptr noundef nonnull align 8 dereferenceable(32) %39) #14
  %40 = getelementptr inbounds %"class.LIEF::PE::ResourceDialogItem", ptr %5, i32 0, i32 13
  call void @_ZNSt7__cxx1112basic_stringIDsSt11char_traitsIDsESaIDsEEC2Ev(ptr noundef nonnull align 8 dereferenceable(32) %40) #14
  %41 = getelementptr inbounds %"class.LIEF::PE::ResourceDialogItem", ptr %5, i32 0, i32 14
  store i16 0, ptr %41, align 8
  ret void
}