; Function Attrs: mustprogress uwtable
define void @_ZN4LIEF2PE18ResourceDialogItemC2ERKNS0_7details27pe_dialog_item_template_extE(ptr noundef nonnull align 8 dereferenceable(106) %0, ptr nocapture noundef nonnull readonly align 1 dereferenceable(24) %1) unnamed_addr #2 align 2 personality ptr @__gxx_personality_v0 {
  tail call void @_ZN4LIEF6ObjectC2Ev(ptr noundef nonnull align 8 dereferenceable(8) %0)
  store ptr getelementptr inbounds ({ [7 x ptr] }, ptr @_ZTVN4LIEF2PE18ResourceDialogItemE, i64 0, i32 0, i64 2), ptr %0, align 8
  %3 = getelementptr inbounds i8, ptr %0, i64 8
  store i8 1, ptr %3, align 8
  %4 = getelementptr inbounds i8, ptr %0, i64 12
  %5 = load i32, ptr %1, align 1
  store i32 %5, ptr %4, align 4
  %6 = getelementptr inbounds i8, ptr %0, i64 16
  %7 = getelementptr inbounds i8, ptr %1, i64 4
  %8 = load i32, ptr %7, align 1
  store i32 %8, ptr %6, align 8
  %9 = getelementptr inbounds i8, ptr %0, i64 20
  %10 = getelementptr inbounds i8, ptr %1, i64 8
  %11 = load i32, ptr %10, align 1
  store i32 %11, ptr %9, align 4
  %12 = getelementptr inbounds i8, ptr %0, i64 24
  %13 = getelementptr inbounds i8, ptr %1, i64 20
  %14 = load i32, ptr %13, align 1
  store i32 %14, ptr %12, align 8
  %15 = getelementptr inbounds i8, ptr %0, i64 28
  %16 = getelementptr inbounds i8, ptr %1, i64 12
  %17 = load i16, ptr %16, align 1
  store i16 %17, ptr %15, align 4
  %18 = getelementptr inbounds i8, ptr %0, i64 30
  %19 = getelementptr inbounds i8, ptr %1, i64 14
  %20 = load i16, ptr %19, align 1
  store i16 %20, ptr %18, align 2
  %21 = getelementptr inbounds i8, ptr %0, i64 32
  %22 = getelementptr inbounds i8, ptr %1, i64 16
  %23 = load i16, ptr %22, align 1
  store i16 %23, ptr %21, align 8
  %24 = getelementptr inbounds i8, ptr %0, i64 34
  %25 = getelementptr inbounds i8, ptr %1, i64 18
  %26 = load i16, ptr %25, align 1
  store i16 %26, ptr %24, align 2
  %27 = getelementptr inbounds i8, ptr %0, i64 40
  %28 = getelementptr inbounds i8, ptr %0, i64 56
  store ptr %28, ptr %27, align 8
  %29 = getelementptr inbounds i8, ptr %0, i64 48
  store i64 0, ptr %29, align 8
  store i16 0, ptr %28, align 8
  %30 = getelementptr inbounds i8, ptr %0, i64 72
  %31 = getelementptr inbounds i8, ptr %0, i64 88
  store ptr %31, ptr %30, align 8
  %32 = getelementptr inbounds i8, ptr %0, i64 80
  store i64 0, ptr %32, align 8
  store i16 0, ptr %31, align 8
  %33 = getelementptr inbounds i8, ptr %0, i64 104
  store i16 0, ptr %33, align 8
  ret void
}